; ModuleID = '10/766.c'
source_filename = "10/766.c"
target datalayout = "e-m:e-p270:32:32-p271:32:32-p272:64:64-i64:64-f80:128-n8:16:32:64-S128"
target triple = "x86_64-pc-linux-gnu"

@.str = private unnamed_addr constant [3 x i8] c"%d\00", align 1

; Function Attrs: noinline nounwind uwtable
define dso_local i32 @main() #0 {
  %1 = alloca i32, align 4
  %2 = alloca [100 x i32], align 16
  %3 = alloca i32, align 4
  %4 = alloca i32, align 4
  %5 = alloca i32, align 4
  %6 = alloca [100 x i32], align 16
  %7 = alloca i32, align 4
  store i32 0, i32* %1, align 4
  store i32 0, i32* %7, align 4
  %8 = call i32 (i8*, ...) @__isoc99_scanf(i8* getelementptr inbounds ([3 x i8], [3 x i8]* @.str, i64 0, i64 0), i32* %5)
  %9 = load i32, i32* %5, align 4
  %10 = sub nsw i32 %9, 1
  store i32 %10, i32* %3, align 4
  br label %11

11:                                               ; preds = %19, %0
  %12 = load i32, i32* %3, align 4
  %13 = icmp sge i32 %12, 0
  br i1 %13, label %14, label %22

14:                                               ; preds = %11
  %15 = load i32, i32* %3, align 4
  %16 = sext i32 %15 to i64
  %17 = getelementptr inbounds [100 x i32], [100 x i32]* %2, i64 0, i64 %16
  %18 = call i32 (i8*, ...) @__isoc99_scanf(i8* getelementptr inbounds ([3 x i8], [3 x i8]* @.str, i64 0, i64 0), i32* %17)
  br label %19

19:                                               ; preds = %14
  %20 = load i32, i32* %3, align 4
  %21 = add nsw i32 %20, -1
  store i32 %21, i32* %3, align 4
  br label %11

22:                                               ; preds = %11
  store i32 0, i32* %3, align 4
  br label %23

23:                                               ; preds = %71, %22
  %24 = load i32, i32* %3, align 4
  %25 = load i32, i32* %5, align 4
  %26 = icmp slt i32 %24, %25
  br i1 %26, label %27, label %74

27:                                               ; preds = %23
  %28 = load i32, i32* %3, align 4
  %29 = sext i32 %28 to i64
  %30 = getelementptr inbounds [100 x i32], [100 x i32]* %6, i64 0, i64 %29
  store i32 1, i32* %30, align 4
  %31 = load i32, i32* %3, align 4
  %32 = sub nsw i32 %31, 1
  store i32 %32, i32* %4, align 4
  br label %33

33:                                               ; preds = %67, %27
  %34 = load i32, i32* %4, align 4
  %35 = icmp sge i32 %34, 0
  br i1 %35, label %36, label %70

36:                                               ; preds = %33
  %37 = load i32, i32* %3, align 4
  %38 = sext i32 %37 to i64
  %39 = getelementptr inbounds [100 x i32], [100 x i32]* %2, i64 0, i64 %38
  %40 = load i32, i32* %39, align 4
  %41 = load i32, i32* %4, align 4
  %42 = sext i32 %41 to i64
  %43 = getelementptr inbounds [100 x i32], [100 x i32]* %2, i64 0, i64 %42
  %44 = load i32, i32* %43, align 4
  %45 = icmp sge i32 %40, %44
  br i1 %45, label %46, label %66

46:                                               ; preds = %36
  %47 = load i32, i32* %3, align 4
  %48 = sext i32 %47 to i64
  %49 = getelementptr inbounds [100 x i32], [100 x i32]* %6, i64 0, i64 %48
  %50 = load i32, i32* %49, align 4
  %51 = load i32, i32* %4, align 4
  %52 = sext i32 %51 to i64
  %53 = getelementptr inbounds [100 x i32], [100 x i32]* %6, i64 0, i64 %52
  %54 = load i32, i32* %53, align 4
  %55 = add nsw i32 %54, 1
  %56 = icmp slt i32 %50, %55
  br i1 %56, label %57, label %66

57:                                               ; preds = %46
  %58 = load i32, i32* %4, align 4
  %59 = sext i32 %58 to i64
  %60 = getelementptr inbounds [100 x i32], [100 x i32]* %6, i64 0, i64 %59
  %61 = load i32, i32* %60, align 4
  %62 = add nsw i32 %61, 1
  %63 = load i32, i32* %3, align 4
  %64 = sext i32 %63 to i64
  %65 = getelementptr inbounds [100 x i32], [100 x i32]* %6, i64 0, i64 %64
  store i32 %62, i32* %65, align 4
  br label %66

66:                                               ; preds = %57, %46, %36
  br label %67

67:                                               ; preds = %66
  %68 = load i32, i32* %4, align 4
  %69 = add nsw i32 %68, -1
  store i32 %69, i32* %4, align 4
  br label %33

70:                                               ; preds = %33
  br label %71

71:                                               ; preds = %70
  %72 = load i32, i32* %3, align 4
  %73 = add nsw i32 %72, 1
  store i32 %73, i32* %3, align 4
  br label %23

74:                                               ; preds = %23
  store i32 0, i32* %3, align 4
  br label %75

75:                                               ; preds = %92, %74
  %76 = load i32, i32* %3, align 4
  %77 = load i32, i32* %5, align 4
  %78 = icmp slt i32 %76, %77
  br i1 %78, label %79, label %95

79:                                               ; preds = %75
  %80 = load i32, i32* %7, align 4
  %81 = load i32, i32* %3, align 4
  %82 = sext i32 %81 to i64
  %83 = getelementptr inbounds [100 x i32], [100 x i32]* %6, i64 0, i64 %82
  %84 = load i32, i32* %83, align 4
  %85 = icmp slt i32 %80, %84
  br i1 %85, label %86, label %91

86:                                               ; preds = %79
  %87 = load i32, i32* %3, align 4
  %88 = sext i32 %87 to i64
  %89 = getelementptr inbounds [100 x i32], [100 x i32]* %6, i64 0, i64 %88
  %90 = load i32, i32* %89, align 4
  store i32 %90, i32* %7, align 4
  br label %91

91:                                               ; preds = %86, %79
  br label %92

92:                                               ; preds = %91
  %93 = load i32, i32* %3, align 4
  %94 = add nsw i32 %93, 1
  store i32 %94, i32* %3, align 4
  br label %75

95:                                               ; preds = %75
  %96 = load i32, i32* %7, align 4
  %97 = call i32 (i8*, ...) @printf(i8* getelementptr inbounds ([3 x i8], [3 x i8]* @.str, i64 0, i64 0), i32 %96)
  ret i32 0
}

declare dso_local i32 @__isoc99_scanf(i8*, ...) #1

declare dso_local i32 @printf(i8*, ...) #1


!llvm.module.flags = !{!0}
!llvm.ident = !{!1}

!0 = !{i32 1, !"wchar_size", i32 4}
!1 = !{!"clang version 10.0.0-4ubuntu1 "}
